; ModuleID = '36/1256.c'
source_filename = "36/1256.c"
target datalayout = "e-m:e-p270:32:32-p271:32:32-p272:64:64-i64:64-f80:128-n8:16:32:64-S128"
target triple = "x86_64-pc-linux-gnu"

@.str = private unnamed_addr constant [3 x i8] c"%s\00", align 1
@.str.1 = private unnamed_addr constant [5 x i8] c"YES\0A\00", align 1
@.str.2 = private unnamed_addr constant [4 x i8] c"NO\0A\00", align 1

; Function Attrs: noinline nounwind uwtable
define dso_local i32 @main() #0 {
  %1 = alloca i32, align 4
  %2 = alloca i32, align 4
  %3 = alloca i32, align 4
  %4 = alloca i32, align 4
  %5 = alloca i32, align 4
  %6 = alloca i32, align 4
  %7 = alloca i32, align 4
  %8 = alloca [100 x i8], align 16
  %9 = alloca [100 x i8], align 16
  store i32 0, i32* %1, align 4
  store i32 0, i32* %7, align 4
  %10 = getelementptr inbounds [100 x i8], [100 x i8]* %8, i64 0, i64 0
  %11 = call i32 (i8*, ...) @__isoc99_scanf(i8* getelementptr inbounds ([3 x i8], [3 x i8]* @.str, i64 0, i64 0), i8* %10)
  %12 = getelementptr inbounds [100 x i8], [100 x i8]* %9, i64 0, i64 0
  %13 = call i32 (i8*, ...) @__isoc99_scanf(i8* getelementptr inbounds ([3 x i8], [3 x i8]* @.str, i64 0, i64 0), i8* %12)
  %14 = getelementptr inbounds [100 x i8], [100 x i8]* %8, i64 0, i64 0
  %15 = call i64 @strlen(i8* %14) #3
  %16 = trunc i64 %15 to i32
  store i32 %16, i32* %4, align 4
  %17 = getelementptr inbounds [100 x i8], [100 x i8]* %9, i64 0, i64 0
  %18 = call i64 @strlen(i8* %17) #3
  %19 = trunc i64 %18 to i32
  store i32 %19, i32* %5, align 4
  store i32 0, i32* %2, align 4
  br label %20

20:                                               ; preds = %69, %0
  %21 = load i32, i32* %2, align 4
  %22 = load i32, i32* %4, align 4
  %23 = icmp slt i32 %21, %22
  br i1 %23, label %24, label %72

24:                                               ; preds = %20
  %25 = load i32, i32* %4, align 4
  %26 = sub nsw i32 %25, 1
  store i32 %26, i32* %3, align 4
  br label %27

27:                                               ; preds = %65, %24
  %28 = load i32, i32* %3, align 4
  %29 = load i32, i32* %2, align 4
  %30 = icmp sgt i32 %28, %29
  br i1 %30, label %31, label %68

31:                                               ; preds = %27
  %32 = load i32, i32* %3, align 4
  %33 = sext i32 %32 to i64
  %34 = getelementptr inbounds [100 x i8], [100 x i8]* %8, i64 0, i64 %33
  %35 = load i8, i8* %34, align 1
  %36 = sext i8 %35 to i32
  %37 = load i32, i32* %3, align 4
  %38 = sub nsw i32 %37, 1
  %39 = sext i32 %38 to i64
  %40 = getelementptr inbounds [100 x i8], [100 x i8]* %8, i64 0, i64 %39
  %41 = load i8, i8* %40, align 1
  %42 = sext i8 %41 to i32
  %43 = icmp sgt i32 %36, %42
  br i1 %43, label %44, label %64

44:                                               ; preds = %31
  %45 = load i32, i32* %3, align 4
  %46 = sext i32 %45 to i64
  %47 = getelementptr inbounds [100 x i8], [100 x i8]* %8, i64 0, i64 %46
  %48 = load i8, i8* %47, align 1
  %49 = sext i8 %48 to i32
  store i32 %49, i32* %6, align 4
  %50 = load i32, i32* %3, align 4
  %51 = sub nsw i32 %50, 1
  %52 = sext i32 %51 to i64
  %53 = getelementptr inbounds [100 x i8], [100 x i8]* %8, i64 0, i64 %52
  %54 = load i8, i8* %53, align 1
  %55 = load i32, i32* %3, align 4
  %56 = sext i32 %55 to i64
  %57 = getelementptr inbounds [100 x i8], [100 x i8]* %8, i64 0, i64 %56
  store i8 %54, i8* %57, align 1
  %58 = load i32, i32* %6, align 4
  %59 = trunc i32 %58 to i8
  %60 = load i32, i32* %3, align 4
  %61 = sub nsw i32 %60, 1
  %62 = sext i32 %61 to i64
  %63 = getelementptr inbounds [100 x i8], [100 x i8]* %8, i64 0, i64 %62
  store i8 %59, i8* %63, align 1
  br label %64

64:                                               ; preds = %44, %31
  br label %65

65:                                               ; preds = %64
  %66 = load i32, i32* %3, align 4
  %67 = add nsw i32 %66, -1
  store i32 %67, i32* %3, align 4
  br label %27

68:                                               ; preds = %27
  br label %69

69:                                               ; preds = %68
  %70 = load i32, i32* %2, align 4
  %71 = add nsw i32 %70, 1
  store i32 %71, i32* %2, align 4
  br label %20

72:                                               ; preds = %20
  store i32 0, i32* %2, align 4
  br label %73

73:                                               ; preds = %122, %72
  %74 = load i32, i32* %2, align 4
  %75 = load i32, i32* %5, align 4
  %76 = icmp slt i32 %74, %75
  br i1 %76, label %77, label %125

77:                                               ; preds = %73
  %78 = load i32, i32* %5, align 4
  %79 = sub nsw i32 %78, 1
  store i32 %79, i32* %3, align 4
  br label %80

80:                                               ; preds = %118, %77
  %81 = load i32, i32* %3, align 4
  %82 = load i32, i32* %2, align 4
  %83 = icmp sgt i32 %81, %82
  br i1 %83, label %84, label %121

84:                                               ; preds = %80
  %85 = load i32, i32* %3, align 4
  %86 = sext i32 %85 to i64
  %87 = getelementptr inbounds [100 x i8], [100 x i8]* %9, i64 0, i64 %86
  %88 = load i8, i8* %87, align 1
  %89 = sext i8 %88 to i32
  %90 = load i32, i32* %3, align 4
  %91 = sub nsw i32 %90, 1
  %92 = sext i32 %91 to i64
  %93 = getelementptr inbounds [100 x i8], [100 x i8]* %9, i64 0, i64 %92
  %94 = load i8, i8* %93, align 1
  %95 = sext i8 %94 to i32
  %96 = icmp sgt i32 %89, %95
  br i1 %96, label %97, label %117

97:                                               ; preds = %84
  %98 = load i32, i32* %3, align 4
  %99 = sext i32 %98 to i64
  %100 = getelementptr inbounds [100 x i8], [100 x i8]* %9, i64 0, i64 %99
  %101 = load i8, i8* %100, align 1
  %102 = sext i8 %101 to i32
  store i32 %102, i32* %6, align 4
  %103 = load i32, i32* %3, align 4
  %104 = sub nsw i32 %103, 1
  %105 = sext i32 %104 to i64
  %106 = getelementptr inbounds [100 x i8], [100 x i8]* %9, i64 0, i64 %105
  %107 = load i8, i8* %106, align 1
  %108 = load i32, i32* %3, align 4
  %109 = sext i32 %108 to i64
  %110 = getelementptr inbounds [100 x i8], [100 x i8]* %9, i64 0, i64 %109
  store i8 %107, i8* %110, align 1
  %111 = load i32, i32* %6, align 4
  %112 = trunc i32 %111 to i8
  %113 = load i32, i32* %3, align 4
  %114 = sub nsw i32 %113, 1
  %115 = sext i32 %114 to i64
  %116 = getelementptr inbounds [100 x i8], [100 x i8]* %9, i64 0, i64 %115
  store i8 %112, i8* %116, align 1
  br label %117

117:                                              ; preds = %97, %84
  br label %118

118:                                              ; preds = %117
  %119 = load i32, i32* %3, align 4
  %120 = add nsw i32 %119, -1
  store i32 %120, i32* %3, align 4
  br label %80

121:                                              ; preds = %80
  br label %122

122:                                              ; preds = %121
  %123 = load i32, i32* %2, align 4
  %124 = add nsw i32 %123, 1
  store i32 %124, i32* %2, align 4
  br label %73

125:                                              ; preds = %73
  store i32 0, i32* %2, align 4
  br label %126

126:                                              ; preds = %147, %125
  %127 = load i32, i32* %2, align 4
  %128 = load i32, i32* %4, align 4
  %129 = icmp slt i32 %127, %128
  br i1 %129, label %130, label %150

130:                                              ; preds = %126
  %131 = load i32, i32* %2, align 4
  %132 = sext i32 %131 to i64
  %133 = getelementptr inbounds [100 x i8], [100 x i8]* %8, i64 0, i64 %132
  %134 = load i8, i8* %133, align 1
  %135 = sext i8 %134 to i32
  %136 = load i32, i32* %2, align 4
  %137 = sext i32 %136 to i64
  %138 = getelementptr inbounds [100 x i8], [100 x i8]* %9, i64 0, i64 %137
  %139 = load i8, i8* %138, align 1
  %140 = sext i8 %139 to i32
  %141 = icmp eq i32 %135, %140
  br i1 %141, label %142, label %145

142:                                              ; preds = %130
  %143 = load i32, i32* %7, align 4
  %144 = add nsw i32 %143, 1
  store i32 %144, i32* %7, align 4
  br label %146

145:                                              ; preds = %130
  br label %150

146:                                              ; preds = %142
  br label %147

147:                                              ; preds = %146
  %148 = load i32, i32* %2, align 4
  %149 = add nsw i32 %148, 1
  store i32 %149, i32* %2, align 4
  br label %126

150:                                              ; preds = %145, %126
  %151 = load i32, i32* %7, align 4
  %152 = load i32, i32* %4, align 4
  %153 = icmp eq i32 %151, %152
  br i1 %153, label %154, label %156

154:                                              ; preds = %150
  %155 = call i32 (i8*, ...) @printf(i8* getelementptr inbounds ([5 x i8], [5 x i8]* @.str.1, i64 0, i64 0))
  br label %158

156:                                              ; preds = %150
  %157 = call i32 (i8*, ...) @printf(i8* getelementptr inbounds ([4 x i8], [4 x i8]* @.str.2, i64 0, i64 0))
  br label %158

158:                                              ; preds = %156, %154
  ret i32 0
}

declare dso_local i32 @__isoc99_scanf(i8*, ...) #1

; Function Attrs: nounwind readonly
declare dso_local i64 @strlen(i8*) #2

declare dso_local i32 @printf(i8*, ...) #1


!llvm.module.flags = !{!0}
!llvm.ident = !{!1}

!0 = !{i32 1, !"wchar_size", i32 4}
!1 = !{!"clang version 10.0.0-4ubuntu1 "}
